target datalayout = "e-m:e-p270:32:32-p271:32:32-p272:64:64-i64:64-i128:128-f80:128-n8:16:32:64-S128"
target triple = "x86_64-pc-linux-gnu"

%struct.exr_attr_string_vector_t = type { i32, i32, ptr }
%struct.exr_attr_string_t = type { i32, i32, ptr }
%struct._priv_exr_context_t = type { i8, i8, i8, i8, i8, i8, i8, i8, %struct.exr_attr_string_t, %struct.exr_attr_string_t, ptr, ptr, ptr, ptr, ptr, ptr, ptr, ptr, i32, i32, i32, i32, i32, float, ptr, ptr, ptr, i64, ptr, ptr, i64, i32, i32, i32, i32, %struct._priv_exr_part_t, ptr, ptr, %struct.exr_attribute_list, %union.pthread_mutex_t, i8, i8, [2 x i8], i32 }
%struct._priv_exr_part_t = type { i32, i32, %struct.exr_attribute_list, ptr, ptr, ptr, ptr, ptr, ptr, ptr, ptr, ptr, ptr, ptr, ptr, ptr, ptr, %struct.exr_attr_box2i_t, %struct.exr_attr_box2i_t, i32, i32, i32, float, i32, i32, ptr, ptr, ptr, ptr, i64, i16, i16, i32, i64, i64 }
%struct.exr_attr_box2i_t = type { %struct.exr_attr_v2i_t, %struct.exr_attr_v2i_t }
%struct.exr_attr_v2i_t = type { i32, i32 }
%struct.exr_attribute_list = type { i32, i32, ptr, ptr }
%union.pthread_mutex_t = type { %struct.__pthread_mutex_s }
%struct.__pthread_mutex_s = type { i32, i32, i32, i32, i32, i16, i16, %struct.__pthread_internal_list }
%struct.__pthread_internal_list = type { ptr, ptr }

@.str = private unnamed_addr constant [55 x i8] c"Invalid reference to string vector object to assign to\00", align 1
@.str.1 = private unnamed_addr constant [71 x i8] c"Received request to allocate negative sized string vector (%d entries)\00", align 1
@.str.2 = private unnamed_addr constant [54 x i8] c"Invalid too large size for string vector (%d entries)\00", align 1

; Function Attrs: nounwind uwtable
define hidden i32 @exr_attr_string_vector_destroy(ptr noundef %0, ptr noundef %1) #0 {
  %3 = alloca i32, align 4
  %4 = alloca ptr, align 8
  %5 = alloca ptr, align 8
  %6 = alloca %struct.exr_attr_string_vector_t, align 8
  %7 = alloca ptr, align 8
  %8 = alloca i32, align 4
  store ptr %0, ptr %4, align 8, !tbaa !3
  store ptr %1, ptr %5, align 8, !tbaa !8
  %9 = load ptr, ptr %4, align 8, !tbaa !3
  %10 = icmp ne ptr %9, null
  br i1 %10, label %12, label %11

11:                                               ; preds = %2
  store i32 2, ptr %3, align 4
  br label %55

12:                                               ; preds = %2
  %13 = load ptr, ptr %5, align 8, !tbaa !8
  %14 = icmp ne ptr %13, null
  br i1 %14, label %15, label %54

15:                                               ; preds = %12
  call void @llvm.lifetime.start.p0(i64 16, ptr %6) #6
  call void @llvm.memset.p0.i64(ptr align 8 %6, i8 0, i64 16, i1 false)
  %16 = load ptr, ptr %5, align 8, !tbaa !8
  %17 = getelementptr inbounds nuw %struct.exr_attr_string_vector_t, ptr %16, i32 0, i32 1
  %18 = load i32, ptr %17, align 4, !tbaa !34
  %19 = icmp sgt i32 %18, 0
  br i1 %19, label %20, label %52

20:                                               ; preds = %15
  call void @llvm.lifetime.start.p0(i64 8, ptr %7) #6
  %21 = load ptr, ptr %5, align 8, !tbaa !8
  %22 = getelementptr inbounds nuw %struct.exr_attr_string_vector_t, ptr %21, i32 0, i32 2
  %23 = load ptr, ptr %22, align 8, !tbaa !30
  %24 = ptrtoint ptr %23 to i64
  %25 = inttoptr i64 %24 to ptr
  store ptr %25, ptr %7, align 8, !tbaa !8
  call void @llvm.lifetime.start.p0(i64 4, ptr %8) #6
  store i32 0, ptr %8, align 4, !tbaa !9
  br label %26

26:                                               ; preds = %40, %20
  %27 = load i32, ptr %8, align 4, !tbaa !9
  %28 = load ptr, ptr %5, align 8, !tbaa !8
  %29 = getelementptr inbounds nuw %struct.exr_attr_string_vector_t, ptr %28, i32 0, i32 0
  %30 = load i32, ptr %29, align 8, !tbaa !33
  %31 = icmp slt i32 %27, %30
  br i1 %31, label %33, label %32

32:                                               ; preds = %26
  call void @llvm.lifetime.end.p0(i64 4, ptr %8) #6
  br label %43

33:                                               ; preds = %26
  %34 = load ptr, ptr %4, align 8, !tbaa !3
  %35 = load ptr, ptr %7, align 8, !tbaa !8
  %36 = load i32, ptr %8, align 4, !tbaa !9
  %37 = sext i32 %36 to i64
  %38 = getelementptr inbounds %struct.exr_attr_string_t, ptr %35, i64 %37
  %39 = call i32 @exr_attr_string_destroy(ptr noundef %34, ptr noundef %38)
  br label %40

40:                                               ; preds = %33
  %41 = load i32, ptr %8, align 4, !tbaa !9
  %42 = add nsw i32 %41, 1
  store i32 %42, ptr %8, align 4, !tbaa !9
  br label %26, !llvm.loop !39

43:                                               ; preds = %32
  %44 = load ptr, ptr %7, align 8, !tbaa !8
  %45 = icmp ne ptr %44, null
  br i1 %45, label %46, label %51

46:                                               ; preds = %43
  %47 = load ptr, ptr %4, align 8, !tbaa !3
  %48 = getelementptr inbounds nuw %struct._priv_exr_context_t, ptr %47, i32 0, i32 17
  %49 = load ptr, ptr %48, align 8, !tbaa !40
  %50 = load ptr, ptr %7, align 8, !tbaa !8
  call void %49(ptr noundef %50)
  br label %51

51:                                               ; preds = %46, %43
  call void @llvm.lifetime.end.p0(i64 8, ptr %7) #6
  br label %52

52:                                               ; preds = %51, %15
  %53 = load ptr, ptr %5, align 8, !tbaa !8
  call void @llvm.memcpy.p0.p0.i64(ptr align 8 %53, ptr align 8 %6, i64 16, i1 false), !tbaa.struct !28
  call void @llvm.lifetime.end.p0(i64 16, ptr %6) #6
  br label %54

54:                                               ; preds = %52, %12
  store i32 0, ptr %3, align 4
  br label %55

55:                                               ; preds = %54, %11
  %56 = load i32, ptr %3, align 4
  ret i32 %56
}

; Function Attrs: nounwind uwtable
define hidden i32 @exr_attr_string_vector_init(ptr noundef %0, ptr noundef %1, i32 noundef %2) #0 {
  %4 = alloca i32, align 4
  %5 = alloca ptr, align 8
  %6 = alloca ptr, align 8
  %7 = alloca i32, align 4
  %8 = alloca %struct.exr_attr_string_vector_t, align 8
  %9 = alloca %struct.exr_attr_string_t, align 8
  %10 = alloca i64, align 8
  %11 = alloca i32, align 4
  %12 = alloca i32, align 4
  store ptr %0, ptr %5, align 8, !tbaa !3
  store ptr %1, ptr %6, align 8, !tbaa !8
  store i32 %2, ptr %7, align 4, !tbaa !9
  call void @llvm.lifetime.start.p0(i64 16, ptr %8) #6
  call void @llvm.memset.p0.i64(ptr align 8 %8, i8 0, i64 16, i1 false)
  call void @llvm.lifetime.start.p0(i64 16, ptr %9) #6
  call void @llvm.memset.p0.i64(ptr align 8 %9, i8 0, i64 16, i1 false)
  call void @llvm.lifetime.start.p0(i64 8, ptr %10) #6
  %13 = load i32, ptr %7, align 4, !tbaa !9
  %14 = sext i32 %13 to i64
  %15 = mul i64 %14, 16
  store i64 %15, ptr %10, align 8, !tbaa !11
  %16 = load ptr, ptr %5, align 8, !tbaa !3
  %17 = icmp ne ptr %16, null
  br i1 %17, label %19, label %18

18:                                               ; preds = %3
  store i32 2, ptr %4, align 4
  store i32 1, ptr %11, align 4
  br label %96

19:                                               ; preds = %3
  %20 = load ptr, ptr %6, align 8, !tbaa !8
  %21 = icmp ne ptr %20, null
  br i1 %21, label %28, label %22

22:                                               ; preds = %19
  %23 = load ptr, ptr %5, align 8, !tbaa !3
  %24 = getelementptr inbounds nuw %struct._priv_exr_context_t, ptr %23, i32 0, i32 13
  %25 = load ptr, ptr %24, align 8, !tbaa !13
  %26 = load ptr, ptr %5, align 8, !tbaa !3
  %27 = call i32 %25(ptr noundef %26, i32 noundef 3, ptr noundef @.str)
  store i32 %27, ptr %4, align 4
  store i32 1, ptr %11, align 4
  br label %96

28:                                               ; preds = %19
  %29 = load i32, ptr %7, align 4, !tbaa !9
  %30 = icmp slt i32 %29, 0
  br i1 %30, label %31, label %38

31:                                               ; preds = %28
  %32 = load ptr, ptr %5, align 8, !tbaa !3
  %33 = getelementptr inbounds nuw %struct._priv_exr_context_t, ptr %32, i32 0, i32 14
  %34 = load ptr, ptr %33, align 8, !tbaa !27
  %35 = load ptr, ptr %5, align 8, !tbaa !3
  %36 = load i32, ptr %7, align 4, !tbaa !9
  %37 = call i32 (ptr, i32, ptr, ...) %34(ptr noundef %35, i32 noundef 3, ptr noundef @.str.1, i32 noundef %36)
  store i32 %37, ptr %4, align 4
  store i32 1, ptr %11, align 4
  br label %96

38:                                               ; preds = %28
  %39 = load i64, ptr %10, align 8, !tbaa !11
  %40 = icmp ugt i64 %39, 2147483647
  br i1 %40, label %41, label %48

41:                                               ; preds = %38
  %42 = load ptr, ptr %5, align 8, !tbaa !3
  %43 = getelementptr inbounds nuw %struct._priv_exr_context_t, ptr %42, i32 0, i32 14
  %44 = load ptr, ptr %43, align 8, !tbaa !27
  %45 = load ptr, ptr %5, align 8, !tbaa !3
  %46 = load i32, ptr %7, align 4, !tbaa !9
  %47 = call i32 (ptr, i32, ptr, ...) %44(ptr noundef %45, i32 noundef 3, ptr noundef @.str.2, i32 noundef %46)
  store i32 %47, ptr %4, align 4
  store i32 1, ptr %11, align 4
  br label %96

48:                                               ; preds = %38
  %49 = load ptr, ptr %6, align 8, !tbaa !8
  call void @llvm.memcpy.p0.p0.i64(ptr align 8 %49, ptr align 8 %8, i64 16, i1 false), !tbaa.struct !28
  %50 = load i64, ptr %10, align 8, !tbaa !11
  %51 = icmp ugt i64 %50, 0
  br i1 %51, label %52, label %95

52:                                               ; preds = %48
  %53 = load ptr, ptr %5, align 8, !tbaa !3
  %54 = getelementptr inbounds nuw %struct._priv_exr_context_t, ptr %53, i32 0, i32 16
  %55 = load ptr, ptr %54, align 8, !tbaa !29
  %56 = load i64, ptr %10, align 8, !tbaa !11
  %57 = call ptr %55(i64 noundef %56)
  %58 = load ptr, ptr %6, align 8, !tbaa !8
  %59 = getelementptr inbounds nuw %struct.exr_attr_string_vector_t, ptr %58, i32 0, i32 2
  store ptr %57, ptr %59, align 8, !tbaa !30
  %60 = load ptr, ptr %6, align 8, !tbaa !8
  %61 = getelementptr inbounds nuw %struct.exr_attr_string_vector_t, ptr %60, i32 0, i32 2
  %62 = load ptr, ptr %61, align 8, !tbaa !30
  %63 = icmp eq ptr %62, null
  br i1 %63, label %64, label %70

64:                                               ; preds = %52
  %65 = load ptr, ptr %5, align 8, !tbaa !3
  %66 = getelementptr inbounds nuw %struct._priv_exr_context_t, ptr %65, i32 0, i32 12
  %67 = load ptr, ptr %66, align 8, !tbaa !32
  %68 = load ptr, ptr %5, align 8, !tbaa !3
  %69 = call i32 %67(ptr noundef %68, i32 noundef 1)
  store i32 %69, ptr %4, align 4
  store i32 1, ptr %11, align 4
  br label %96

70:                                               ; preds = %52
  %71 = load i32, ptr %7, align 4, !tbaa !9
  %72 = load ptr, ptr %6, align 8, !tbaa !8
  %73 = getelementptr inbounds nuw %struct.exr_attr_string_vector_t, ptr %72, i32 0, i32 0
  store i32 %71, ptr %73, align 8, !tbaa !33
  %74 = load i32, ptr %7, align 4, !tbaa !9
  %75 = load ptr, ptr %6, align 8, !tbaa !8
  %76 = getelementptr inbounds nuw %struct.exr_attr_string_vector_t, ptr %75, i32 0, i32 1
  store i32 %74, ptr %76, align 4, !tbaa !34
  call void @llvm.lifetime.start.p0(i64 4, ptr %12) #6
  store i32 0, ptr %12, align 4, !tbaa !9
  br label %77

77:                                               ; preds = %91, %70
  %78 = load i32, ptr %12, align 4, !tbaa !9
  %79 = load i32, ptr %7, align 4, !tbaa !9
  %80 = icmp slt i32 %78, %79
  br i1 %80, label %82, label %81

81:                                               ; preds = %77
  store i32 2, ptr %11, align 4
  call void @llvm.lifetime.end.p0(i64 4, ptr %12) #6
  br label %94

82:                                               ; preds = %77
  %83 = load ptr, ptr %6, align 8, !tbaa !8
  %84 = getelementptr inbounds nuw %struct.exr_attr_string_vector_t, ptr %83, i32 0, i32 2
  %85 = load ptr, ptr %84, align 8, !tbaa !30
  %86 = load i32, ptr %12, align 4, !tbaa !9
  %87 = sext i32 %86 to i64
  %88 = getelementptr inbounds %struct.exr_attr_string_t, ptr %85, i64 %87
  %89 = ptrtoint ptr %88 to i64
  %90 = inttoptr i64 %89 to ptr
  call void @llvm.memcpy.p0.p0.i64(ptr align 8 %90, ptr align 8 %9, i64 16, i1 false), !tbaa.struct !35
  br label %91

91:                                               ; preds = %82
  %92 = load i32, ptr %12, align 4, !tbaa !9
  %93 = add nsw i32 %92, 1
  store i32 %93, ptr %12, align 4, !tbaa !9
  br label %77, !llvm.loop !37

94:                                               ; preds = %81
  br label %95

95:                                               ; preds = %94, %48
  store i32 0, ptr %4, align 4
  store i32 1, ptr %11, align 4
  br label %96

96:                                               ; preds = %95, %64, %41, %31, %22, %18
  call void @llvm.lifetime.end.p0(i64 8, ptr %10) #6
  call void @llvm.lifetime.end.p0(i64 16, ptr %9) #6
  call void @llvm.lifetime.end.p0(i64 16, ptr %8) #6
  %97 = load i32, ptr %4, align 4
  ret i32 %97
}

; Function Attrs: nounwind uwtable
define hidden i32 @exr_attr_string_vector_copy(ptr noundef %0, ptr noundef %1, ptr noundef %2) #0 {
  %4 = alloca i32, align 4
  %5 = alloca ptr, align 8
  %6 = alloca ptr, align 8
  %7 = alloca ptr, align 8
  %8 = alloca i32, align 4
  %9 = alloca i32, align 4
  %10 = alloca i32, align 4
  store ptr %0, ptr %5, align 8, !tbaa !3
  store ptr %1, ptr %6, align 8, !tbaa !8
  store ptr %2, ptr %7, align 8, !tbaa !8
  call void @llvm.lifetime.start.p0(i64 4, ptr %8) #6
  %11 = load ptr, ptr %7, align 8, !tbaa !8
  %12 = icmp ne ptr %11, null
  br i1 %12, label %14, label %13

13:                                               ; preds = %3
  store i32 3, ptr %4, align 4
  store i32 1, ptr %9, align 4
  br label %72

14:                                               ; preds = %3
  %15 = load ptr, ptr %5, align 8, !tbaa !3
  %16 = load ptr, ptr %6, align 8, !tbaa !8
  %17 = load ptr, ptr %7, align 8, !tbaa !8
  %18 = getelementptr inbounds nuw %struct.exr_attr_string_vector_t, ptr %17, i32 0, i32 0
  %19 = load i32, ptr %18, align 8, !tbaa !33
  %20 = call i32 @exr_attr_string_vector_init(ptr noundef %15, ptr noundef %16, i32 noundef %19)
  store i32 %20, ptr %8, align 4, !tbaa !9
  call void @llvm.lifetime.start.p0(i64 4, ptr %10) #6
  store i32 0, ptr %10, align 4, !tbaa !9
  br label %21

21:                                               ; preds = %60, %14
  %22 = load i32, ptr %8, align 4, !tbaa !9
  %23 = icmp eq i32 %22, 0
  br i1 %23, label %24, label %30

24:                                               ; preds = %21
  %25 = load i32, ptr %10, align 4, !tbaa !9
  %26 = load ptr, ptr %7, align 8, !tbaa !8
  %27 = getelementptr inbounds nuw %struct.exr_attr_string_vector_t, ptr %26, i32 0, i32 0
  %28 = load i32, ptr %27, align 8, !tbaa !33
  %29 = icmp slt i32 %25, %28
  br label %30

30:                                               ; preds = %24, %21
  %31 = phi i1 [ false, %21 ], [ %29, %24 ]
  br i1 %31, label %33, label %32

32:                                               ; preds = %30
  store i32 2, ptr %9, align 4
  call void @llvm.lifetime.end.p0(i64 4, ptr %10) #6
  br label %63

33:                                               ; preds = %30
  %34 = load ptr, ptr %5, align 8, !tbaa !3
  %35 = load ptr, ptr %6, align 8, !tbaa !8
  %36 = getelementptr inbounds nuw %struct.exr_attr_string_vector_t, ptr %35, i32 0, i32 2
  %37 = load ptr, ptr %36, align 8, !tbaa !30
  %38 = ptrtoint ptr %37 to i64
  %39 = inttoptr i64 %38 to ptr
  %40 = load i32, ptr %10, align 4, !tbaa !9
  %41 = sext i32 %40 to i64
  %42 = getelementptr inbounds %struct.exr_attr_string_t, ptr %39, i64 %41
  %43 = load ptr, ptr %7, align 8, !tbaa !8
  %44 = getelementptr inbounds nuw %struct.exr_attr_string_vector_t, ptr %43, i32 0, i32 2
  %45 = load ptr, ptr %44, align 8, !tbaa !30
  %46 = load i32, ptr %10, align 4, !tbaa !9
  %47 = sext i32 %46 to i64
  %48 = getelementptr inbounds %struct.exr_attr_string_t, ptr %45, i64 %47
  %49 = getelementptr inbounds nuw %struct.exr_attr_string_t, ptr %48, i32 0, i32 2
  %50 = load ptr, ptr %49, align 8, !tbaa !41
  %51 = load ptr, ptr %7, align 8, !tbaa !8
  %52 = getelementptr inbounds nuw %struct.exr_attr_string_vector_t, ptr %51, i32 0, i32 2
  %53 = load ptr, ptr %52, align 8, !tbaa !30
  %54 = load i32, ptr %10, align 4, !tbaa !9
  %55 = sext i32 %54 to i64
  %56 = getelementptr inbounds %struct.exr_attr_string_t, ptr %53, i64 %55
  %57 = getelementptr inbounds nuw %struct.exr_attr_string_t, ptr %56, i32 0, i32 0
  %58 = load i32, ptr %57, align 8, !tbaa !42
  %59 = call i32 @exr_attr_string_set_with_length(ptr noundef %34, ptr noundef %42, ptr noundef %50, i32 noundef %58)
  store i32 %59, ptr %8, align 4, !tbaa !9
  br label %60

60:                                               ; preds = %33
  %61 = load i32, ptr %10, align 4, !tbaa !9
  %62 = add nsw i32 %61, 1
  store i32 %62, ptr %10, align 4, !tbaa !9
  br label %21, !llvm.loop !43

63:                                               ; preds = %32
  %64 = load i32, ptr %8, align 4, !tbaa !9
  %65 = icmp ne i32 %64, 0
  br i1 %65, label %66, label %70

66:                                               ; preds = %63
  %67 = load ptr, ptr %5, align 8, !tbaa !3
  %68 = load ptr, ptr %6, align 8, !tbaa !8
  %69 = call i32 @exr_attr_string_vector_destroy(ptr noundef %67, ptr noundef %68)
  br label %70

70:                                               ; preds = %66, %63
  %71 = load i32, ptr %8, align 4, !tbaa !9
  store i32 %71, ptr %4, align 4
  store i32 1, ptr %9, align 4
  br label %72

72:                                               ; preds = %70, %13
  call void @llvm.lifetime.end.p0(i64 4, ptr %8) #6
  %73 = load i32, ptr %4, align 4
  ret i32 %73
}