; Function Attrs: nounwind uwtable
define hidden i32 @exr_attr_string_vector_copy(ptr noundef %0, ptr noundef %1, ptr noundef readonly %2) local_unnamed_addr #0 {
  %.not = icmp eq ptr %2, null
  br i1 %.not, label %.critedge, label %4

4:                                                ; preds = %3
  %5 = load i32, ptr %2, align 8, !tbaa !27
  %6 = sext i32 %5 to i64
  %7 = shl nsw i64 %6, 4
  %.not.i = icmp eq ptr %0, null
  br i1 %.not.i, label %.critedge, label %8

8:                                                ; preds = %4
  %.not35.i = icmp eq ptr %1, null
  br i1 %.not35.i, label %9, label %13

9:                                                ; preds = %8
  %10 = getelementptr inbounds nuw i8, ptr %0, i64 64
  %11 = load ptr, ptr %10, align 8, !tbaa !3
  %12 = tail call i32 %11(ptr noundef nonnull %0, i32 noundef 3, ptr noundef nonnull @.str) #5
  br label %exr_attr_string_vector_init.exit

13:                                               ; preds = %8
  %14 = icmp slt i32 %5, 0
  br i1 %14, label %15, label %19

15:                                               ; preds = %13
  %16 = getelementptr inbounds nuw i8, ptr %0, i64 72
  %17 = load ptr, ptr %16, align 8, !tbaa !22
  %18 = tail call i32 (ptr, i32, ptr, ...) %17(ptr noundef nonnull %0, i32 noundef 3, ptr noundef nonnull @.str.1, i32 noundef %5) #5
  br label %exr_attr_string_vector_init.exit

19:                                               ; preds = %13
  %20 = icmp ugt i64 %7, 2147483647
  br i1 %20, label %21, label %25

21:                                               ; preds = %19
  %22 = getelementptr inbounds nuw i8, ptr %0, i64 72
  %23 = load ptr, ptr %22, align 8, !tbaa !22
  %24 = tail call i32 (ptr, i32, ptr, ...) %23(ptr noundef nonnull %0, i32 noundef 3, ptr noundef nonnull @.str.2, i32 noundef %5) #5
  br label %exr_attr_string_vector_init.exit

25:                                               ; preds = %19
  tail call void @llvm.memset.p0.i64(ptr noundef nonnull align 8 dereferenceable(16) %1, i8 0, i64 16, i1 false)
  %.not36.i = icmp eq i32 %5, 0
  br i1 %.not36.i, label %.lr.ph, label %26

26:                                               ; preds = %25
  %27 = getelementptr inbounds nuw i8, ptr %0, i64 88
  %28 = load ptr, ptr %27, align 8, !tbaa !23
  %29 = tail call ptr %28(i64 noundef %7) #5
  %30 = getelementptr inbounds nuw i8, ptr %1, i64 8
  store ptr %29, ptr %30, align 8, !tbaa !24
  %31 = icmp eq ptr %29, null
  br i1 %31, label %32, label %.lr.ph.preheader.i

32:                                               ; preds = %26
  %33 = getelementptr inbounds nuw i8, ptr %0, i64 56
  %34 = load ptr, ptr %33, align 8, !tbaa !26
  %35 = tail call i32 %34(ptr noundef nonnull %0, i32 noundef 1) #5
  br label %exr_attr_string_vector_init.exit

.lr.ph.preheader.i:                               ; preds = %26
  store i32 %5, ptr %1, align 8, !tbaa !27
  %36 = getelementptr inbounds nuw i8, ptr %1, i64 4
  store i32 %5, ptr %36, align 4, !tbaa !28
  %wide.trip.count.i = zext nneg i32 %5 to i64
  br label %.lr.ph.i

.lr.ph.i:                                         ; preds = %.lr.ph.i, %.lr.ph.preheader.i
  %indvars.iv.i = phi i64 [ 0, %.lr.ph.preheader.i ], [ %indvars.iv.next.i, %.lr.ph.i ]
  %37 = load ptr, ptr %30, align 8, !tbaa !24
  %38 = getelementptr inbounds nuw %struct.exr_attr_string_t, ptr %37, i64 %indvars.iv.i
  tail call void @llvm.memset.p0.i64(ptr noundef nonnull align 8 dereferenceable(16) %38, i8 0, i64 16, i1 false)
  %indvars.iv.next.i = add nuw nsw i64 %indvars.iv.i, 1
  %exitcond.not.i = icmp eq i64 %indvars.iv.next.i, %wide.trip.count.i
  br i1 %exitcond.not.i, label %.lr.ph, label %.lr.ph.i, !llvm.loop !29

exr_attr_string_vector_init.exit:                 ; preds = %9, %15, %21, %32
  %.030.i = phi i32 [ %18, %15 ], [ %24, %21 ], [ %35, %32 ], [ %12, %9 ]
  %cond28 = icmp eq i32 %.030.i, 0
  br i1 %cond28, label %.lr.ph, label %._crit_edge

.lr.ph:                                           ; preds = %.lr.ph.i, %25, %exr_attr_string_vector_init.exit
  %39 = getelementptr inbounds nuw i8, ptr %1, i64 8
  %40 = getelementptr inbounds nuw i8, ptr %2, i64 8
  br label %41

41:                                               ; preds = %.lr.ph, %45
  %indvars.iv = phi i64 [ 0, %.lr.ph ], [ %indvars.iv.next, %45 ]
  %42 = load i32, ptr %2, align 8, !tbaa !27
  %43 = sext i32 %42 to i64
  %44 = icmp slt i64 %indvars.iv, %43
  br i1 %44, label %45, label %.critedge

45:                                               ; preds = %41
  %46 = load ptr, ptr %39, align 8, !tbaa !24
  %47 = getelementptr inbounds nuw %struct.exr_attr_string_t, ptr %46, i64 %indvars.iv
  %48 = load ptr, ptr %40, align 8, !tbaa !24
  %49 = getelementptr inbounds nuw %struct.exr_attr_string_t, ptr %48, i64 %indvars.iv
  %50 = getelementptr inbounds nuw i8, ptr %49, i64 8
  %51 = load ptr, ptr %50, align 8, !tbaa !33
  %52 = load i32, ptr %49, align 8, !tbaa !34
  %53 = tail call i32 @exr_attr_string_set_with_length(ptr noundef nonnull %0, ptr noundef %47, ptr noundef %51, i32 noundef %52) #5
  %indvars.iv.next = add nuw nsw i64 %indvars.iv, 1
  %cond = icmp eq i32 %53, 0
  br i1 %cond, label %41, label %._crit_edge, !llvm.loop !35

._crit_edge:                                      ; preds = %45, %exr_attr_string_vector_init.exit
  %.019.lcssa = phi i32 [ %.030.i, %exr_attr_string_vector_init.exit ], [ %53, %45 ]
  %.not18.i = icmp eq ptr %1, null
  br i1 %.not18.i, label %.critedge, label %54

54:                                               ; preds = %._crit_edge
  %55 = getelementptr inbounds nuw i8, ptr %1, i64 4
  %56 = load i32, ptr %55, align 4, !tbaa !28
  %57 = icmp sgt i32 %56, 0
  br i1 %57, label %58, label %71

58:                                               ; preds = %54
  %59 = getelementptr inbounds nuw i8, ptr %1, i64 8
  %60 = load ptr, ptr %59, align 8, !tbaa !24
  %61 = load i32, ptr %1, align 8, !tbaa !27
  %62 = icmp sgt i32 %61, 0
  br i1 %62, label %.lr.ph.i24, label %._crit_edge.i

._crit_edge.i:                                    ; preds = %.lr.ph.i24, %58
  %.not19.i = icmp eq ptr %60, null
  br i1 %.not19.i, label %71, label %68

.lr.ph.i24:                                       ; preds = %58, %.lr.ph.i24
  %indvars.iv.i25 = phi i64 [ %indvars.iv.next.i26, %.lr.ph.i24 ], [ 0, %58 ]
  %63 = getelementptr inbounds nuw %struct.exr_attr_string_t, ptr %60, i64 %indvars.iv.i25
  %64 = tail call i32 @exr_attr_string_destroy(ptr noundef nonnull %0, ptr noundef %63) #5
  %indvars.iv.next.i26 = add nuw nsw i64 %indvars.iv.i25, 1
  %65 = load i32, ptr %1, align 8, !tbaa !27
  %66 = sext i32 %65 to i64
  %67 = icmp slt i64 %indvars.iv.next.i26, %66
  br i1 %67, label %.lr.ph.i24, label %._crit_edge.i, !llvm.loop !31

68:                                               ; preds = %._crit_edge.i
  %69 = getelementptr inbounds nuw i8, ptr %0, i64 96
  %70 = load ptr, ptr %69, align 8, !tbaa !32
  tail call void %70(ptr noundef nonnull %60) #5
  br label %71

71:                                               ; preds = %68, %._crit_edge.i, %54
  tail call void @llvm.memset.p0.i64(ptr noundef nonnull align 8 dereferenceable(16) %1, i8 0, i64 16, i1 false)
  br label %.critedge

.critedge:                                        ; preds = %41, %4, %71, %._crit_edge, %3
  %.020 = phi i32 [ 3, %3 ], [ %.019.lcssa, %._crit_edge ], [ %.019.lcssa, %71 ], [ 2, %4 ], [ 0, %41 ]
  ret i32 %.020
}